; Function Attrs: nounwind sspstrong uwtable
define internal fastcc range(i32 -5, 1) i32 @add_opcode(ptr noundef captures(none) %0, i32 noundef %1) unnamed_addr #4 {
  %3 = getelementptr inbounds nuw i8, ptr %0, i64 8
  %4 = load i32, ptr %3, align 8, !tbaa !115
  %5 = add i32 %4, 1
  %6 = getelementptr inbounds nuw i8, ptr %0, i64 12
  %7 = load i32, ptr %6, align 4, !tbaa !37
  %8 = icmp ult i32 %7, %5
  br i1 %8, label %.preheader, label %._crit_edge

._crit_edge:                                      ; preds = %2
  %.pre = load ptr, ptr %0, align 8, !tbaa !17
  br label %17

.preheader:                                       ; preds = %2, %.preheader
  %9 = phi i32 [ %10, %.preheader ], [ %7, %2 ]
  %10 = shl i32 %9, 1
  %11 = icmp ult i32 %10, %5
  br i1 %11, label %.preheader, label %12, !llvm.loop !186

12:                                               ; preds = %.preheader
  store i32 %10, ptr %6, align 4, !tbaa !37
  %13 = load ptr, ptr %0, align 8, !tbaa !17
  %14 = zext i32 %10 to i64
  %15 = tail call ptr @realloc(ptr noundef %13, i64 noundef %14) #21
  %.not = icmp eq ptr %15, null
  br i1 %.not, label %.critedge, label %16

16:                                               ; preds = %12
  store ptr %15, ptr %0, align 8, !tbaa !17
  %.pre29 = load i32, ptr %3, align 8, !tbaa !115
  br label %17

17:                                               ; preds = %._crit_edge, %16
  %18 = phi i32 [ %4, %._crit_edge ], [ %.pre29, %16 ]
  %19 = phi ptr [ %.pre, %._crit_edge ], [ %15, %16 ]
  %20 = trunc i32 %1 to i8
  %21 = zext i32 %18 to i64
  %22 = getelementptr i8, ptr %19, i64 %21
  store i8 %20, ptr %22, align 1, !tbaa !34
  %23 = load i32, ptr %3, align 8, !tbaa !115
  %24 = icmp ult i32 %23, %5
  br i1 %24, label %25, label %.critedge

25:                                               ; preds = %17
  store i32 %5, ptr %3, align 8, !tbaa !115
  br label %.critedge

.critedge:                                        ; preds = %17, %25, %12
  %26 = phi i32 [ -5, %12 ], [ 0, %25 ], [ 0, %17 ]
  ret i32 %26
}